target datalayout = "e-m:e-p270:32:32-p271:32:32-p272:64:64-i64:64-i128:128-f80:128-n8:16:32:64-S128"
target triple = "x86_64-pc-linux-gnu"

%struct.BlockConf = type { ptr, i32, i32, i32, i32, i32, i32, i32, i32, i32, i32, i32, i32, i32, i32, i8, i32, i32, i32, i32 }

@.str = private unnamed_addr constant [25 x i8] c"../qemu/hw/block/block.c\00", align 1
@__func__.blkconf_geometry = private unnamed_addr constant [17 x i8] c"blkconf_geometry\00", align 1
@.str.10 = private unnamed_addr constant [30 x i8] c"cyls must be between 1 and %u\00", align 1
@.str.11 = private unnamed_addr constant [31 x i8] c"heads must be between 1 and %u\00", align 1
@.str.12 = private unnamed_addr constant [30 x i8] c"secs must be between 1 and %u\00", align 1

; Function Attrs: nounwind sspstrong uwtable
define dso_local zeroext i1 @blkconf_geometry(ptr noundef %0, ptr noundef %1, i32 noundef %2, i32 noundef %3, i32 noundef %4, ptr noundef %5) #0 {
  %7 = alloca i1, align 1
  %8 = alloca ptr, align 8
  %9 = alloca ptr, align 8
  %10 = alloca i32, align 4
  %11 = alloca i32, align 4
  %12 = alloca i32, align 4
  %13 = alloca ptr, align 8
  store ptr %0, ptr %8, align 8
  store ptr %1, ptr %9, align 8
  store i32 %2, ptr %10, align 4
  store i32 %3, ptr %11, align 4
  store i32 %4, ptr %12, align 4
  store ptr %5, ptr %13, align 8
  %14 = load ptr, ptr %8, align 8
  %15 = getelementptr inbounds nuw %struct.BlockConf, ptr %14, i32 0, i32 8
  %16 = load i32, ptr %15, align 4
  %17 = icmp ne i32 %16, 0
  br i1 %17, label %39, label %18

18:                                               ; preds = %6
  %19 = load ptr, ptr %8, align 8
  %20 = getelementptr inbounds nuw %struct.BlockConf, ptr %19, i32 0, i32 9
  %21 = load i32, ptr %20, align 8
  %22 = icmp ne i32 %21, 0
  br i1 %22, label %39, label %23

23:                                               ; preds = %18
  %24 = load ptr, ptr %8, align 8
  %25 = getelementptr inbounds nuw %struct.BlockConf, ptr %24, i32 0, i32 10
  %26 = load i32, ptr %25, align 4
  %27 = icmp ne i32 %26, 0
  br i1 %27, label %39, label %28

28:                                               ; preds = %23
  %29 = load ptr, ptr %8, align 8
  %30 = getelementptr inbounds nuw %struct.BlockConf, ptr %29, i32 0, i32 0
  %31 = load ptr, ptr %30, align 8
  %32 = load ptr, ptr %8, align 8
  %33 = getelementptr inbounds nuw %struct.BlockConf, ptr %32, i32 0, i32 8
  %34 = load ptr, ptr %8, align 8
  %35 = getelementptr inbounds nuw %struct.BlockConf, ptr %34, i32 0, i32 9
  %36 = load ptr, ptr %8, align 8
  %37 = getelementptr inbounds nuw %struct.BlockConf, ptr %36, i32 0, i32 10
  %38 = load ptr, ptr %9, align 8
  call void @hd_geometry_guess(ptr noundef %31, ptr noundef %33, ptr noundef %35, ptr noundef %37, ptr noundef %38)
  br label %59

39:                                               ; preds = %23, %18, %6
  %40 = load ptr, ptr %9, align 8
  %41 = icmp ne ptr %40, null
  br i1 %41, label %42, label %58

42:                                               ; preds = %39
  %43 = load ptr, ptr %9, align 8
  %44 = load i32, ptr %43, align 4
  %45 = icmp eq i32 %44, 0
  br i1 %45, label %46, label %58

46:                                               ; preds = %42
  %47 = load ptr, ptr %8, align 8
  %48 = getelementptr inbounds nuw %struct.BlockConf, ptr %47, i32 0, i32 8
  %49 = load i32, ptr %48, align 4
  %50 = load ptr, ptr %8, align 8
  %51 = getelementptr inbounds nuw %struct.BlockConf, ptr %50, i32 0, i32 9
  %52 = load i32, ptr %51, align 8
  %53 = load ptr, ptr %8, align 8
  %54 = getelementptr inbounds nuw %struct.BlockConf, ptr %53, i32 0, i32 10
  %55 = load i32, ptr %54, align 4
  %56 = call i32 @hd_bios_chs_auto_trans(i32 noundef %49, i32 noundef %52, i32 noundef %55)
  %57 = load ptr, ptr %9, align 8
  store i32 %56, ptr %57, align 4
  br label %58

58:                                               ; preds = %46, %42, %39
  br label %59

59:                                               ; preds = %58, %28
  %60 = load ptr, ptr %8, align 8
  %61 = getelementptr inbounds nuw %struct.BlockConf, ptr %60, i32 0, i32 8
  %62 = load i32, ptr %61, align 4
  %63 = icmp ne i32 %62, 0
  br i1 %63, label %74, label %64

64:                                               ; preds = %59
  %65 = load ptr, ptr %8, align 8
  %66 = getelementptr inbounds nuw %struct.BlockConf, ptr %65, i32 0, i32 9
  %67 = load i32, ptr %66, align 8
  %68 = icmp ne i32 %67, 0
  br i1 %68, label %74, label %69

69:                                               ; preds = %64
  %70 = load ptr, ptr %8, align 8
  %71 = getelementptr inbounds nuw %struct.BlockConf, ptr %70, i32 0, i32 10
  %72 = load i32, ptr %71, align 4
  %73 = icmp ne i32 %72, 0
  br i1 %73, label %74, label %117

74:                                               ; preds = %69, %64, %59
  %75 = load ptr, ptr %8, align 8
  %76 = getelementptr inbounds nuw %struct.BlockConf, ptr %75, i32 0, i32 8
  %77 = load i32, ptr %76, align 4
  %78 = icmp ult i32 %77, 1
  br i1 %78, label %85, label %79

79:                                               ; preds = %74
  %80 = load ptr, ptr %8, align 8
  %81 = getelementptr inbounds nuw %struct.BlockConf, ptr %80, i32 0, i32 8
  %82 = load i32, ptr %81, align 4
  %83 = load i32, ptr %10, align 4
  %84 = icmp ugt i32 %82, %83
  br i1 %84, label %85, label %88

85:                                               ; preds = %79, %74
  %86 = load ptr, ptr %13, align 8
  %87 = load i32, ptr %10, align 4
  call void (ptr, ptr, i32, ptr, ptr, ...) @error_setg_internal(ptr noundef %86, ptr noundef @.str, i32 noundef 265, ptr noundef @__func__.blkconf_geometry, ptr noundef @.str.10, i32 noundef %87)
  store i1 false, ptr %7, align 1
  br label %118

88:                                               ; preds = %79
  %89 = load ptr, ptr %8, align 8
  %90 = getelementptr inbounds nuw %struct.BlockConf, ptr %89, i32 0, i32 9
  %91 = load i32, ptr %90, align 8
  %92 = icmp ult i32 %91, 1
  br i1 %92, label %99, label %93

93:                                               ; preds = %88
  %94 = load ptr, ptr %8, align 8
  %95 = getelementptr inbounds nuw %struct.BlockConf, ptr %94, i32 0, i32 9
  %96 = load i32, ptr %95, align 8
  %97 = load i32, ptr %11, align 4
  %98 = icmp ugt i32 %96, %97
  br i1 %98, label %99, label %102

99:                                               ; preds = %93, %88
  %100 = load ptr, ptr %13, align 8
  %101 = load i32, ptr %11, align 4
  call void (ptr, ptr, i32, ptr, ptr, ...) @error_setg_internal(ptr noundef %100, ptr noundef @.str, i32 noundef 269, ptr noundef @__func__.blkconf_geometry, ptr noundef @.str.11, i32 noundef %101)
  store i1 false, ptr %7, align 1
  br label %118

102:                                              ; preds = %93
  %103 = load ptr, ptr %8, align 8
  %104 = getelementptr inbounds nuw %struct.BlockConf, ptr %103, i32 0, i32 10
  %105 = load i32, ptr %104, align 4
  %106 = icmp ult i32 %105, 1
  br i1 %106, label %113, label %107

107:                                              ; preds = %102
  %108 = load ptr, ptr %8, align 8
  %109 = getelementptr inbounds nuw %struct.BlockConf, ptr %108, i32 0, i32 10
  %110 = load i32, ptr %109, align 4
  %111 = load i32, ptr %12, align 4
  %112 = icmp ugt i32 %110, %111
  br i1 %112, label %113, label %116

113:                                              ; preds = %107, %102
  %114 = load ptr, ptr %13, align 8
  %115 = load i32, ptr %12, align 4
  call void (ptr, ptr, i32, ptr, ptr, ...) @error_setg_internal(ptr noundef %114, ptr noundef @.str, i32 noundef 273, ptr noundef @__func__.blkconf_geometry, ptr noundef @.str.12, i32 noundef %115)
  store i1 false, ptr %7, align 1
  br label %118

116:                                              ; preds = %107
  br label %117

117:                                              ; preds = %116, %69
  store i1 true, ptr %7, align 1
  br label %118

118:                                              ; preds = %117, %113, %99, %85
  %119 = load i1, ptr %7, align 1
  ret i1 %119
}