; Function Attrs: nounwind sspstrong uwtable
define dso_local noundef zeroext i1 @blkconf_geometry(ptr noundef %0, ptr noundef %1, i32 noundef %2, i32 noundef %3, i32 noundef %4, ptr noundef %5) local_unnamed_addr #0 {
  %7 = getelementptr inbounds nuw i8, ptr %0, i64 36
  %8 = load i32, ptr %7, align 4
  %.not = icmp eq i32 %8, 0
  br i1 %.not, label %9, label %17

9:                                                ; preds = %6
  %10 = getelementptr inbounds nuw i8, ptr %0, i64 40
  %11 = load i32, ptr %10, align 8
  %.not36 = icmp eq i32 %11, 0
  br i1 %.not36, label %12, label %17

12:                                               ; preds = %9
  %13 = getelementptr inbounds nuw i8, ptr %0, i64 44
  %14 = load i32, ptr %13, align 4
  %.not37 = icmp eq i32 %14, 0
  br i1 %.not37, label %15, label %17

15:                                               ; preds = %12
  %16 = load ptr, ptr %0, align 8
  tail call void @hd_geometry_guess(ptr noundef %16, ptr noundef nonnull %7, ptr noundef nonnull %10, ptr noundef nonnull %13, ptr noundef %1) #6
  br label %27

17:                                               ; preds = %12, %9, %6
  %.not38 = icmp eq ptr %1, null
  br i1 %.not38, label %27, label %18

18:                                               ; preds = %17
  %19 = load i32, ptr %1, align 4
  %20 = icmp eq i32 %19, 0
  br i1 %20, label %21, label %27

21:                                               ; preds = %18
  %22 = getelementptr inbounds nuw i8, ptr %0, i64 40
  %23 = load i32, ptr %22, align 8
  %24 = getelementptr inbounds nuw i8, ptr %0, i64 44
  %25 = load i32, ptr %24, align 4
  %26 = tail call i32 @hd_bios_chs_auto_trans(i32 noundef %8, i32 noundef %23, i32 noundef %25) #6
  store i32 %26, ptr %1, align 4
  br label %27

27:                                               ; preds = %17, %18, %21, %15
  %28 = load i32, ptr %7, align 4
  %.not39 = icmp eq i32 %28, 0
  br i1 %.not39, label %29, label %35

29:                                               ; preds = %27
  %30 = getelementptr inbounds nuw i8, ptr %0, i64 40
  %31 = load i32, ptr %30, align 8
  %.not40 = icmp eq i32 %31, 0
  br i1 %.not40, label %32, label %.thread

32:                                               ; preds = %29
  %33 = getelementptr inbounds nuw i8, ptr %0, i64 44
  %34 = load i32, ptr %33, align 4
  %.not41 = icmp eq i32 %34, 0
  br i1 %.not41, label %47, label %.thread

35:                                               ; preds = %27
  %36 = icmp ugt i32 %28, %2
  br i1 %36, label %.thread, label %37

.thread:                                          ; preds = %29, %32, %35
  tail call void (ptr, ptr, i32, ptr, ptr, ...) @error_setg_internal(ptr noundef %5, ptr noundef nonnull @.str, i32 noundef 265, ptr noundef nonnull @__func__.blkconf_geometry, ptr noundef nonnull @.str.10, i32 noundef %2) #6
  br label %47

37:                                               ; preds = %35
  %38 = getelementptr inbounds nuw i8, ptr %0, i64 40
  %39 = load i32, ptr %38, align 8
  %40 = add i32 %39, -1
  %or.cond42.not = icmp ult i32 %40, %3
  br i1 %or.cond42.not, label %42, label %41

41:                                               ; preds = %37
  tail call void (ptr, ptr, i32, ptr, ptr, ...) @error_setg_internal(ptr noundef %5, ptr noundef nonnull @.str, i32 noundef 269, ptr noundef nonnull @__func__.blkconf_geometry, ptr noundef nonnull @.str.11, i32 noundef %3) #6
  br label %47

42:                                               ; preds = %37
  %43 = getelementptr inbounds nuw i8, ptr %0, i64 44
  %44 = load i32, ptr %43, align 4
  %45 = add i32 %44, -1
  %or.cond43.not = icmp ult i32 %45, %4
  br i1 %or.cond43.not, label %47, label %46

46:                                               ; preds = %42
  tail call void (ptr, ptr, i32, ptr, ptr, ...) @error_setg_internal(ptr noundef %5, ptr noundef nonnull @.str, i32 noundef 273, ptr noundef nonnull @__func__.blkconf_geometry, ptr noundef nonnull @.str.12, i32 noundef %4) #6
  br label %47

47:                                               ; preds = %32, %42, %46, %41, %.thread
  %.0 = phi i1 [ false, %.thread ], [ false, %41 ], [ false, %46 ], [ true, %42 ], [ true, %32 ]
  ret i1 %.0
}